; Function Attrs: nounwind uwtable
define internal ptr @complex___format__(ptr noundef %0, ptr noundef %1) #9 {
  %3 = alloca %struct._PyUnicodeWriter, align 8
  %4 = getelementptr i8, ptr %1, i64 8
  %.val = load ptr, ptr %4, align 8, !tbaa !8
  %5 = getelementptr i8, ptr %.val, i64 168
  %.val6 = load i64, ptr %5, align 8, !tbaa !20
  %6 = and i64 %.val6, 268435456
  %.not = icmp eq i64 %6, 0
  br i1 %.not, label %7, label %8

7:                                                ; preds = %2
  tail call void @_PyArg_BadArgument(ptr noundef nonnull @.str.17, ptr noundef nonnull @.str.20, ptr noundef nonnull @.str.21, ptr noundef nonnull %1) #16
  br label %15

8:                                                ; preds = %2
  call void @llvm.lifetime.start.p0(i64 56, ptr nonnull %3) #16
  call void @_PyUnicodeWriter_Init(ptr noundef nonnull %3) #16
  %9 = getelementptr i8, ptr %1, i64 16
  %.val.i = load i64, ptr %9, align 8, !tbaa !52
  %10 = call i32 @_PyComplex_FormatAdvancedWriter(ptr noundef nonnull %3, ptr noundef %0, ptr noundef nonnull %1, i64 noundef 0, i64 noundef %.val.i) #16
  %11 = icmp eq i32 %10, -1
  br i1 %11, label %12, label %13

12:                                               ; preds = %8
  call void @_PyUnicodeWriter_Dealloc(ptr noundef nonnull %3) #16
  br label %complex___format___impl.exit

13:                                               ; preds = %8
  %14 = call ptr @_PyUnicodeWriter_Finish(ptr noundef nonnull %3) #16
  br label %complex___format___impl.exit

complex___format___impl.exit:                     ; preds = %12, %13
  %.0.i = phi ptr [ null, %12 ], [ %14, %13 ]
  call void @llvm.lifetime.end.p0(i64 56, ptr nonnull %3) #16
  br label %15

15:                                               ; preds = %complex___format___impl.exit, %7
  %.0 = phi ptr [ %.0.i, %complex___format___impl.exit ], [ null, %7 ]
  ret ptr %.0
}